target datalayout = "e-m:e-p270:32:32-p271:32:32-p272:64:64-i64:64-i128:128-f80:128-n8:16:32:64-S128"
target triple = "x86_64-pc-linux-gnu"

%struct.AVVAAPIDeviceContext = type { ptr, i32 }
%struct.AVBufferRef = type { ptr, ptr, i64 }
%struct.AVHWFramesContext = type { ptr, ptr, ptr, ptr, ptr, ptr, ptr, i32, i32, i32, i32, i32 }
%struct.AVHWDeviceContext = type { ptr, i32, ptr, ptr, ptr }

; Function Attrs: nounwind uwtable
define i32 @ff_vaapi_common_frame_params(ptr noundef %0, ptr noundef %1) #0 {
  %3 = alloca i32, align 4
  %4 = alloca ptr, align 8
  %5 = alloca ptr, align 8
  %6 = alloca ptr, align 8
  %7 = alloca ptr, align 8
  %8 = alloca ptr, align 8
  %9 = alloca i32, align 4
  %10 = alloca i32, align 4
  %11 = alloca i32, align 4
  store ptr %0, ptr %4, align 8, !tbaa !4
  store ptr %1, ptr %5, align 8, !tbaa !66
  call void @llvm.lifetime.start.p0(i64 8, ptr %6) #6
  %12 = load ptr, ptr %5, align 8, !tbaa !66
  %13 = getelementptr inbounds nuw %struct.AVBufferRef, ptr %12, i32 0, i32 1
  %14 = load ptr, ptr %13, align 8, !tbaa !67
  store ptr %14, ptr %6, align 8, !tbaa !70
  call void @llvm.lifetime.start.p0(i64 8, ptr %7) #6
  %15 = load ptr, ptr %6, align 8, !tbaa !70
  %16 = getelementptr inbounds nuw %struct.AVHWFramesContext, ptr %15, i32 0, i32 2
  %17 = load ptr, ptr %16, align 8, !tbaa !71
  store ptr %17, ptr %7, align 8, !tbaa !74
  call void @llvm.lifetime.start.p0(i64 8, ptr %8) #6
  call void @llvm.lifetime.start.p0(i64 4, ptr %9) #6
  store i32 -1, ptr %9, align 4, !tbaa !11
  call void @llvm.lifetime.start.p0(i64 4, ptr %10) #6
  %18 = load ptr, ptr %7, align 8, !tbaa !74
  %19 = getelementptr inbounds nuw %struct.AVHWDeviceContext, ptr %18, i32 0, i32 1
  %20 = load i32, ptr %19, align 8, !tbaa !75
  %21 = icmp ne i32 %20, 3
  br i1 %21, label %22, label %23

22:                                               ; preds = %2
  store i32 -22, ptr %3, align 4
  store i32 1, ptr %11, align 4
  br label %47

23:                                               ; preds = %2
  %24 = load ptr, ptr %7, align 8, !tbaa !74
  %25 = getelementptr inbounds nuw %struct.AVHWDeviceContext, ptr %24, i32 0, i32 2
  %26 = load ptr, ptr %25, align 8, !tbaa !77
  store ptr %26, ptr %8, align 8, !tbaa !78
  %27 = load ptr, ptr %4, align 8, !tbaa !4
  %28 = load ptr, ptr %6, align 8, !tbaa !70
  %29 = getelementptr inbounds nuw %struct.AVHWFramesContext, ptr %28, i32 0, i32 1
  %30 = load ptr, ptr %29, align 8, !tbaa !79
  %31 = load ptr, ptr %5, align 8, !tbaa !66
  %32 = call i32 @vaapi_decode_make_config(ptr noundef %27, ptr noundef %30, ptr noundef %9, ptr noundef %31)
  store i32 %32, ptr %10, align 4, !tbaa !11
  %33 = load i32, ptr %10, align 4, !tbaa !11
  %34 = icmp ne i32 %33, 0
  br i1 %34, label %35, label %37

35:                                               ; preds = %23
  %36 = load i32, ptr %10, align 4, !tbaa !11
  store i32 %36, ptr %3, align 4
  store i32 1, ptr %11, align 4
  br label %47

37:                                               ; preds = %23
  %38 = load i32, ptr %9, align 4, !tbaa !11
  %39 = icmp ne i32 %38, -1
  br i1 %39, label %40, label %46

40:                                               ; preds = %37
  %41 = load ptr, ptr %8, align 8, !tbaa !78
  %42 = getelementptr inbounds nuw %struct.AVVAAPIDeviceContext, ptr %41, i32 0, i32 0
  %43 = load ptr, ptr %42, align 8, !tbaa !56
  %44 = load i32, ptr %9, align 4, !tbaa !11
  %45 = call i32 @vaDestroyConfig(ptr noundef %43, i32 noundef %44)
  br label %46

46:                                               ; preds = %40, %37
  store i32 0, ptr %3, align 4
  store i32 1, ptr %11, align 4
  br label %47

47:                                               ; preds = %46, %35, %22
  call void @llvm.lifetime.end.p0(i64 4, ptr %10) #6
  call void @llvm.lifetime.end.p0(i64 4, ptr %9) #6
  call void @llvm.lifetime.end.p0(i64 8, ptr %8) #6
  call void @llvm.lifetime.end.p0(i64 8, ptr %7) #6
  call void @llvm.lifetime.end.p0(i64 8, ptr %6) #6
  %48 = load i32, ptr %3, align 4
  ret i32 %48
}