; Function Attrs: nounwind uwtable
define range(i32 -38, 1) i32 @ff_vaapi_common_frame_params(ptr noundef %0, ptr noundef readonly captures(address_is_null) %1) local_unnamed_addr #0 {
  %3 = alloca i32, align 4
  %4 = getelementptr inbounds nuw i8, ptr %1, i64 8
  %5 = load ptr, ptr %4, align 8, !tbaa !57
  %6 = getelementptr inbounds nuw i8, ptr %5, i64 16
  %7 = load ptr, ptr %6, align 8, !tbaa !60
  call void @llvm.lifetime.start.p0(i64 4, ptr nonnull %3) #4
  store i32 -1, ptr %3, align 4, !tbaa !49
  %8 = getelementptr inbounds nuw i8, ptr %7, i64 8
  %9 = load i32, ptr %8, align 8, !tbaa !63
  %.not = icmp eq i32 %9, 3
  br i1 %.not, label %10, label %21

10:                                               ; preds = %2
  %11 = getelementptr inbounds nuw i8, ptr %7, i64 16
  %12 = load ptr, ptr %11, align 8, !tbaa !65
  %13 = getelementptr inbounds nuw i8, ptr %5, i64 8
  %14 = load ptr, ptr %13, align 8, !tbaa !66
  %15 = call fastcc i32 @vaapi_decode_make_config(ptr noundef %0, ptr noundef %14, ptr noundef nonnull %3, ptr noundef nonnull %1)
  %.not12 = icmp eq i32 %15, 0
  br i1 %.not12, label %16, label %21

16:                                               ; preds = %10
  %17 = load i32, ptr %3, align 4, !tbaa !49
  %.not13 = icmp eq i32 %17, -1
  br i1 %.not13, label %21, label %18

18:                                               ; preds = %16
  %19 = load ptr, ptr %12, align 8, !tbaa !46
  %20 = call i32 @vaDestroyConfig(ptr noundef %19, i32 noundef %17) #4
  br label %21

21:                                               ; preds = %16, %18, %10, %2
  %.0 = phi i32 [ -22, %2 ], [ %15, %10 ], [ 0, %18 ], [ 0, %16 ]
  call void @llvm.lifetime.end.p0(i64 4, ptr nonnull %3) #4
  ret i32 %.0
}